target datalayout = "e-m:e-p270:32:32-p271:32:32-p272:64:64-i64:64-i128:128-f80:128-n8:16:32:64-S128"
target triple = "x86_64-pc-linux-gnu"

%"class.cv::detail::tracking::KuhnMunkres" = type <{ %"class.cv::Mat", %"class.cv::Mat", %"class.std::vector", %"class.std::vector.0", %"class.std::vector.0", i32, [4 x i8] }>
%"class.cv::Mat" = type { i32, i32, i32, i32, ptr, ptr, ptr, ptr, ptr, ptr, %"struct.cv::MatSize", %"struct.cv::MatStep" }
%"struct.cv::MatSize" = type { ptr }
%"struct.cv::MatStep" = type { ptr, [2 x i64] }
%"class.std::vector" = type { %"struct.std::_Vector_base" }
%"struct.std::_Vector_base" = type { %"struct.std::_Vector_base<cv::Point_<int>, std::allocator<cv::Point_<int>>>::_Vector_impl" }
%"struct.std::_Vector_base<cv::Point_<int>, std::allocator<cv::Point_<int>>>::_Vector_impl" = type { %"struct.std::_Vector_base<cv::Point_<int>, std::allocator<cv::Point_<int>>>::_Vector_impl_data" }
%"struct.std::_Vector_base<cv::Point_<int>, std::allocator<cv::Point_<int>>>::_Vector_impl_data" = type { ptr, ptr, ptr }
%"class.std::vector.0" = type { %"struct.std::_Vector_base.1" }
%"struct.std::_Vector_base.1" = type { %"struct.std::_Vector_base<int, std::allocator<int>>::_Vector_impl" }
%"struct.std::_Vector_base<int, std::allocator<int>>::_Vector_impl" = type { %"struct.std::_Vector_base<int, std::allocator<int>>::_Vector_impl_data" }
%"struct.std::_Vector_base<int, std::allocator<int>>::_Vector_impl_data" = type { ptr, ptr, ptr }

; Function Attrs: inlinehint mustprogress nounwind uwtable
define linkonce_odr hidden noundef nonnull align 1 dereferenceable(1) ptr @_ZN2cv3Mat2atIcEERT_ii(ptr noundef nonnull align 8 dereferenceable(96) %0, i32 noundef %1, i32 noundef %2) #6 comdat align 2 {
  %4 = alloca ptr, align 8
  %5 = alloca i32, align 4
  %6 = alloca i32, align 4
  store ptr %0, ptr %4, align 8, !tbaa !32
  store i32 %1, ptr %5, align 4, !tbaa !36
  store i32 %2, ptr %6, align 4, !tbaa !36
  %7 = load ptr, ptr %4, align 8
  %8 = getelementptr inbounds nuw %"class.cv::Mat", ptr %7, i32 0, i32 4
  %9 = load ptr, ptr %8, align 8, !tbaa !92
  %10 = getelementptr inbounds nuw %"class.cv::Mat", ptr %7, i32 0, i32 11
  %11 = getelementptr inbounds nuw %"struct.cv::MatStep", ptr %10, i32 0, i32 0
  %12 = load ptr, ptr %11, align 8, !tbaa !93
  %13 = getelementptr inbounds i64, ptr %12, i64 0
  %14 = load i64, ptr %13, align 8, !tbaa !40
  %15 = load i32, ptr %5, align 4, !tbaa !36
  %16 = sext i32 %15 to i64
  %17 = mul i64 %14, %16
  %18 = getelementptr inbounds nuw i8, ptr %9, i64 %17
  %19 = load i32, ptr %6, align 4, !tbaa !36
  %20 = sext i32 %19 to i64
  %21 = getelementptr inbounds i8, ptr %18, i64 %20
  ret ptr %21
}

; Function Attrs: mustprogress uwtable
define hidden noundef i32 @_ZN2cv6detail8tracking11KuhnMunkres9FindInColEii(ptr noundef nonnull align 8 dereferenceable(268) %0, i32 noundef %1, i32 noundef %2) #5 align 2 {
  %4 = alloca i32, align 4
  %5 = alloca ptr, align 8
  %6 = alloca i32, align 4
  %7 = alloca i32, align 4
  %8 = alloca i32, align 4
  %9 = alloca i32, align 4
  store ptr %0, ptr %5, align 8, !tbaa !3
  store i32 %1, ptr %6, align 4, !tbaa !36
  store i32 %2, ptr %7, align 4, !tbaa !36
  %10 = load ptr, ptr %5, align 8
  call void @llvm.lifetime.start.p0(i64 4, ptr %8) #3
  store i32 0, ptr %8, align 4, !tbaa !36
  br label %11

11:                                               ; preds = %29, %3
  %12 = load i32, ptr %8, align 4, !tbaa !36
  %13 = getelementptr inbounds nuw %"class.cv::detail::tracking::KuhnMunkres", ptr %10, i32 0, i32 5
  %14 = load i32, ptr %13, align 8, !tbaa !8
  %15 = icmp slt i32 %12, %14
  br i1 %15, label %17, label %16

16:                                               ; preds = %11
  store i32 2, ptr %9, align 4
  br label %32

17:                                               ; preds = %11
  %18 = getelementptr inbounds nuw %"class.cv::detail::tracking::KuhnMunkres", ptr %10, i32 0, i32 1
  %19 = load i32, ptr %8, align 4, !tbaa !36
  %20 = load i32, ptr %6, align 4, !tbaa !36
  %21 = call noundef nonnull align 1 dereferenceable(1) ptr @_ZN2cv3Mat2atIcEERT_ii(ptr noundef nonnull align 8 dereferenceable(96) %18, i32 noundef %19, i32 noundef %20)
  %22 = load i8, ptr %21, align 1, !tbaa !44
  %23 = sext i8 %22 to i32
  %24 = load i32, ptr %7, align 4, !tbaa !36
  %25 = icmp eq i32 %23, %24
  br i1 %25, label %26, label %28

26:                                               ; preds = %17
  %27 = load i32, ptr %8, align 4, !tbaa !36
  store i32 %27, ptr %4, align 4
  store i32 1, ptr %9, align 4
  br label %32

28:                                               ; preds = %17
  br label %29

29:                                               ; preds = %28
  %30 = load i32, ptr %8, align 4, !tbaa !36
  %31 = add nsw i32 %30, 1
  store i32 %31, ptr %8, align 4, !tbaa !36
  br label %11, !llvm.loop !109

32:                                               ; preds = %26, %16
  call void @llvm.lifetime.end.p0(i64 4, ptr %8) #3
  %33 = load i32, ptr %9, align 4
  switch i32 %33, label %37 [
    i32 2, label %34
    i32 1, label %35
  ]

34:                                               ; preds = %32
  store i32 -1, ptr %4, align 4
  br label %35

35:                                               ; preds = %34, %32
  %36 = load i32, ptr %4, align 4
  ret i32 %36

37:                                               ; preds = %32
  unreachable
}