; Function Attrs: mustprogress nofree norecurse nosync nounwind willreturn memory(read, inaccessiblemem: none) uwtable
define hidden noundef i32 @_ZN2cv6detail8tracking11KuhnMunkres9FindInColEii(ptr noundef nonnull readonly align 8 captures(none) dereferenceable(268) %0, i32 noundef %1, i32 noundef %2) local_unnamed_addr #8 align 2 {
  %4 = getelementptr inbounds nuw i8, ptr %0, i64 264
  %5 = load i32, ptr %4, align 8, !tbaa !30
  %.not10 = icmp sgt i32 %5, 0
  br i1 %.not10, label %.lr.ph, label %._crit_edge

.lr.ph:                                           ; preds = %3
  %6 = getelementptr inbounds nuw i8, ptr %0, i64 112
  %7 = load ptr, ptr %6, align 8, !tbaa !60
  %8 = getelementptr inbounds nuw i8, ptr %0, i64 168
  %9 = load ptr, ptr %8, align 8, !tbaa !61
  %10 = load i64, ptr %9, align 8, !tbaa !58
  %11 = sext i32 %1 to i64
  %invariant.gep = getelementptr i8, ptr %7, i64 %11
  %wide.trip.count = zext nneg i32 %5 to i64
  br label %12

12:                                               ; preds = %.lr.ph, %17
  %indvars.iv = phi i64 [ 0, %.lr.ph ], [ %indvars.iv.next, %17 ]
  %13 = mul i64 %10, %indvars.iv
  %gep = getelementptr i8, ptr %invariant.gep, i64 %13
  %14 = load i8, ptr %gep, align 1, !tbaa !63
  %15 = sext i8 %14 to i32
  %16 = icmp eq i32 %2, %15
  br i1 %16, label %._crit_edge.loopexit.split.loop.exit, label %17

17:                                               ; preds = %12
  %indvars.iv.next = add nuw nsw i64 %indvars.iv, 1
  %exitcond.not = icmp eq i64 %indvars.iv.next, %wide.trip.count
  br i1 %exitcond.not, label %._crit_edge, label %12, !llvm.loop !79

._crit_edge.loopexit.split.loop.exit:             ; preds = %12
  %18 = trunc nuw nsw i64 %indvars.iv to i32
  br label %._crit_edge

._crit_edge:                                      ; preds = %17, %._crit_edge.loopexit.split.loop.exit, %3
  %spec.select = phi i32 [ -1, %3 ], [ %18, %._crit_edge.loopexit.split.loop.exit ], [ -1, %17 ]
  ret i32 %spec.select
}